target datalayout = "e-m:e-p270:32:32-p271:32:32-p272:64:64-i64:64-i128:128-f80:128-n8:16:32:64-S128"
target triple = "x86_64-pc-linux-gnu"

; Function Attrs: nounwind uwtable
define internal i32 @normal_checkPiTarget(ptr noundef %0, ptr noundef %1, ptr noundef %2, ptr noundef %3) #0 {
  %5 = alloca i32, align 4
  %6 = alloca ptr, align 8
  %7 = alloca ptr, align 8
  %8 = alloca ptr, align 8
  %9 = alloca ptr, align 8
  %10 = alloca i32, align 4
  %11 = alloca i32, align 4
  store ptr %0, ptr %6, align 8, !tbaa !45
  store ptr %1, ptr %7, align 8, !tbaa !4
  store ptr %2, ptr %8, align 8, !tbaa !4
  store ptr %3, ptr %9, align 8, !tbaa !23
  call void @llvm.lifetime.start.p0(i64 4, ptr %10) #4
  store i32 0, ptr %10, align 4, !tbaa !16
  %12 = load ptr, ptr %9, align 8, !tbaa !23
  store i32 11, ptr %12, align 4, !tbaa !16
  %13 = load ptr, ptr %8, align 8, !tbaa !4
  %14 = load ptr, ptr %7, align 8, !tbaa !4
  %15 = ptrtoint ptr %13 to i64
  %16 = ptrtoint ptr %14 to i64
  %17 = sub i64 %15, %16
  %18 = icmp ne i64 %17, 3
  br i1 %18, label %19, label %20

19:                                               ; preds = %4
  store i32 1, ptr %5, align 4
  store i32 1, ptr %11, align 4
  br label %48

20:                                               ; preds = %4
  %21 = load ptr, ptr %7, align 8, !tbaa !4
  %22 = load i8, ptr %21, align 1, !tbaa !13
  %23 = sext i8 %22 to i32
  switch i32 %23, label %25 [
    i32 120, label %26
    i32 88, label %24
  ]

24:                                               ; preds = %20
  store i32 1, ptr %10, align 4, !tbaa !16
  br label %26

25:                                               ; preds = %20
  store i32 1, ptr %5, align 4
  store i32 1, ptr %11, align 4
  br label %48

26:                                               ; preds = %24, %20
  %27 = load ptr, ptr %7, align 8, !tbaa !4
  %28 = getelementptr inbounds i8, ptr %27, i64 1
  store ptr %28, ptr %7, align 8, !tbaa !4
  %29 = load ptr, ptr %7, align 8, !tbaa !4
  %30 = load i8, ptr %29, align 1, !tbaa !13
  %31 = sext i8 %30 to i32
  switch i32 %31, label %33 [
    i32 109, label %34
    i32 77, label %32
  ]

32:                                               ; preds = %26
  store i32 1, ptr %10, align 4, !tbaa !16
  br label %34

33:                                               ; preds = %26
  store i32 1, ptr %5, align 4
  store i32 1, ptr %11, align 4
  br label %48

34:                                               ; preds = %32, %26
  %35 = load ptr, ptr %7, align 8, !tbaa !4
  %36 = getelementptr inbounds i8, ptr %35, i64 1
  store ptr %36, ptr %7, align 8, !tbaa !4
  %37 = load ptr, ptr %7, align 8, !tbaa !4
  %38 = load i8, ptr %37, align 1, !tbaa !13
  %39 = sext i8 %38 to i32
  switch i32 %39, label %41 [
    i32 108, label %42
    i32 76, label %40
  ]

40:                                               ; preds = %34
  store i32 1, ptr %10, align 4, !tbaa !16
  br label %42

41:                                               ; preds = %34
  store i32 1, ptr %5, align 4
  store i32 1, ptr %11, align 4
  br label %48

42:                                               ; preds = %40, %34
  %43 = load i32, ptr %10, align 4, !tbaa !16
  %44 = icmp ne i32 %43, 0
  br i1 %44, label %45, label %46

45:                                               ; preds = %42
  store i32 0, ptr %5, align 4
  store i32 1, ptr %11, align 4
  br label %48

46:                                               ; preds = %42
  %47 = load ptr, ptr %9, align 8, !tbaa !23
  store i32 12, ptr %47, align 4, !tbaa !16
  store i32 1, ptr %5, align 4
  store i32 1, ptr %11, align 4
  br label %48

48:                                               ; preds = %46, %45, %41, %33, %25, %19
  call void @llvm.lifetime.end.p0(i64 4, ptr %10) #4
  %49 = load i32, ptr %5, align 4
  ret i32 %49
}