; Function Attrs: mustprogress nofree norecurse nosync nounwind willreturn memory(argmem: readwrite) uwtable
define internal fastcc range(i32 0, 2) i32 @normal_checkPiTarget(ptr noundef %0, ptr noundef %1, ptr noundef nonnull writeonly captures(none) initializes((0, 4)) %2) unnamed_addr #10 {
  store i32 11, ptr %2, align 4, !tbaa !14
  %4 = ptrtoint ptr %1 to i64
  %5 = ptrtoint ptr %0 to i64
  %6 = sub i64 %4, %5
  %.not = icmp eq i64 %6, 3
  br i1 %.not, label %7, label %19

7:                                                ; preds = %3
  %8 = load i8, ptr %0, align 1, !tbaa !9
  switch i8 %8, label %19 [
    i8 120, label %10
    i8 88, label %9
  ]

9:                                                ; preds = %7
  br label %10

10:                                               ; preds = %9, %7
  %.0 = phi i32 [ 1, %9 ], [ 0, %7 ]
  %11 = getelementptr inbounds nuw i8, ptr %0, i64 1
  %12 = load i8, ptr %11, align 1, !tbaa !9
  switch i8 %12, label %19 [
    i8 109, label %14
    i8 77, label %13
  ]

13:                                               ; preds = %10
  br label %14

14:                                               ; preds = %13, %10
  %.1 = phi i32 [ 1, %13 ], [ %.0, %10 ]
  %15 = getelementptr inbounds nuw i8, ptr %0, i64 2
  %16 = load i8, ptr %15, align 1, !tbaa !9
  switch i8 %16, label %19 [
    i8 108, label %17
    i8 76, label %.thread
  ]

.thread:                                          ; preds = %14
  br label %19

17:                                               ; preds = %14
  %.not11 = icmp eq i32 %.1, 0
  br i1 %.not11, label %18, label %19

18:                                               ; preds = %17
  store i32 12, ptr %2, align 4, !tbaa !14
  br label %19

19:                                               ; preds = %.thread, %17, %14, %10, %7, %3, %18
  %.010 = phi i32 [ 1, %18 ], [ 1, %3 ], [ 1, %7 ], [ 1, %10 ], [ 1, %14 ], [ 0, %17 ], [ 0, %.thread ]
  ret i32 %.010
}